(lp1
(lp2
(I6
cnumpy.core.multiarray
scalar
p3
(cnumpy
dtype
p4
(S'f8'
I0
I1
tRp5
(I3
S'<'
NNNI-1
I-1
I0
tbS'E\x16\x85an\x83\xec?'
tRp6
tp7
a(I7
g3
(g5
S'\xac\x9fgE\x1a|\xaf?'
tRp8
tp9
a(I8
g3
(g5
S'\xa8\xab\xb8\xaa\x12\x93\xa6?'
tRp10
tp11
aa.