(lp1
(lp2
(I6
cnumpy.core.multiarray
scalar
p3
(cnumpy
dtype
p4
(S'f8'
I0
I1
tRp5
(I3
S'<'
NNNI-1
I-1
I0
tbS'3`h\xb4\xfb\xa2\xec?'
tRp6
tp7
a(I7
g3
(g5
S'\x13\xaa\x06+b\x06\xb1?'
tRp8
tp9
a(I8
g3
(g5
S'\xb7\xf4\x1fNs*\xa2?'
tRp10
tp11
aa.